; Function Attrs: mustprogress uwtable
define dso_local void @_ZN4Luau7CodeGen3X6418AssemblyBuilderX649vblendvpdENS1_11RegisterX64ES3_NS1_10OperandX64ES3_(ptr noundef nonnull align 8 dereferenceable(252) %0, i8 %1, i8 %2, i64 %3, i8 %4) local_unnamed_addr #0 align 2 {
  %6 = shl i8 %4, 1
  %7 = and i8 %6, -16
  %.sroa.39.0.insert.ext = zext i8 %1 to i64
  %.sroa.39.0.insert.shift = shl nuw nsw i64 %.sroa.39.0.insert.ext, 16
  %.sroa.28.0.insert.insert = or disjoint i64 %.sroa.39.0.insert.shift, 268468224
  %.sroa.3.0.insert.ext = zext i8 %2 to i64
  %.sroa.3.0.insert.shift = shl nuw nsw i64 %.sroa.3.0.insert.ext, 16
  %.sroa.2.0.insert.insert = or disjoint i64 %.sroa.3.0.insert.shift, 268468224
  tail call void @_ZN4Luau7CodeGen3X6418AssemblyBuilderX648placeAvxEPKcNS1_10OperandX64ES5_S5_hhbhh(ptr noundef nonnull align 8 dereferenceable(252) %0, ptr noundef nonnull @.str.82, i64 %.sroa.28.0.insert.insert, i64 %.sroa.2.0.insert.insert, i64 %3, i8 noundef zeroext %7, i8 noundef zeroext 75, i1 noundef zeroext false, i8 noundef zeroext 3, i8 noundef zeroext 1)
  ret void
}